target datalayout = "e-m:e-p270:32:32-p271:32:32-p272:64:64-i64:64-i128:128-f80:128-n8:16:32:64-S128"
target triple = "x86_64-pc-linux-gnu"

%struct.ARKodeMemRec = type { ptr, double, ptr, i32, i32, double, double, ptr, i32, double, ptr, i32, i32, ptr, ptr, i32, ptr, ptr, i32, ptr, ptr, ptr, ptr, ptr, ptr, ptr, ptr, ptr, ptr, ptr, ptr, ptr, ptr, ptr, i32, ptr, ptr, i32, ptr, i32, ptr, ptr, ptr, ptr, ptr, ptr, ptr, ptr, ptr, ptr, ptr, ptr, ptr, ptr, ptr, ptr, ptr, ptr, ptr, ptr, ptr, ptr, ptr, ptr, ptr, ptr, i32, ptr, ptr, ptr, ptr, ptr, ptr, ptr, i32, ptr, ptr, ptr, i32, ptr, ptr, ptr, ptr, ptr, ptr, ptr, i32, i32, i32, i32, double, double, double, double, double, double, double, double, double, double, i32, ptr, i64, i32, i32, i32, i32, i64, i64, i32, i64, i64, i64, i64, i64, i64, i64, double, double, double, double, double, i32, double, double, i32, i32, i32, i32, i32, i32, i32, i32, ptr, i32, ptr, ptr, ptr, ptr, i32, i32, i32 }

@.str = private unnamed_addr constant [115 x i8] c"generated/home/dtcxzyw/WorkSpace/Projects/compilers/llvm-opt-benchmark/bench/sundials/sundials/src/arkode/arkode.c\00", align 1
@__func__.arkPredict_MaximumOrder = private unnamed_addr constant [24 x i8] c"arkPredict_MaximumOrder\00", align 1
@.str.135 = private unnamed_addr constant [28 x i8] c"ARKodeMem structure is NULL\00", align 1
@.str.136 = private unnamed_addr constant [34 x i8] c"ARKodeInterpMem structure is NULL\00", align 1

; Function Attrs: nounwind uwtable
define i32 @arkPredict_MaximumOrder(ptr noundef %0, double noundef %1, ptr noundef %2) #0 {
  %4 = alloca i32, align 4
  %5 = alloca ptr, align 8
  %6 = alloca double, align 8
  %7 = alloca ptr, align 8
  store ptr %0, ptr %5, align 8, !tbaa !11
  store double %1, ptr %6, align 8, !tbaa !9
  store ptr %2, ptr %7, align 8, !tbaa !7
  %8 = load ptr, ptr %5, align 8, !tbaa !11
  %9 = icmp eq ptr %8, null
  br i1 %9, label %10, label %11

10:                                               ; preds = %3
  call void (ptr, i32, i32, ptr, ptr, ptr, ...) @arkProcessError(ptr noundef null, i32 noundef -21, i32 noundef 2964, ptr noundef @__func__.arkPredict_MaximumOrder, ptr noundef @.str, ptr noundef @.str.135)
  store i32 -21, ptr %4, align 4
  br label %26

11:                                               ; preds = %3
  %12 = load ptr, ptr %5, align 8, !tbaa !11
  %13 = getelementptr inbounds nuw %struct.ARKodeMemRec, ptr %12, i32 0, i32 85
  %14 = load ptr, ptr %13, align 8, !tbaa !39
  %15 = icmp eq ptr %14, null
  br i1 %15, label %16, label %18

16:                                               ; preds = %11
  %17 = load ptr, ptr %5, align 8, !tbaa !11
  call void (ptr, i32, i32, ptr, ptr, ptr, ...) @arkProcessError(ptr noundef %17, i32 noundef -21, i32 noundef 2970, ptr noundef @__func__.arkPredict_MaximumOrder, ptr noundef @.str, ptr noundef @.str.136)
  store i32 -21, ptr %4, align 4
  br label %26

18:                                               ; preds = %11
  %19 = load ptr, ptr %5, align 8, !tbaa !11
  %20 = load ptr, ptr %5, align 8, !tbaa !11
  %21 = getelementptr inbounds nuw %struct.ARKodeMemRec, ptr %20, i32 0, i32 85
  %22 = load ptr, ptr %21, align 8, !tbaa !39
  %23 = load double, ptr %6, align 8, !tbaa !9
  %24 = load ptr, ptr %7, align 8, !tbaa !7
  %25 = call i32 @arkInterpEvaluate(ptr noundef %19, ptr noundef %22, double noundef %23, i32 noundef 0, i32 noundef 5, ptr noundef %24)
  store i32 %25, ptr %4, align 4
  br label %26

26:                                               ; preds = %18, %16, %10
  %27 = load i32, ptr %4, align 4
  ret i32 %27
}