; Function Attrs: nounwind uwtable
define i32 @arkPredict_MaximumOrder(ptr noundef %0, double noundef %1, ptr noundef %2) local_unnamed_addr #0 {
  %4 = icmp eq ptr %0, null
  br i1 %4, label %5, label %6

5:                                                ; preds = %3
  tail call void (ptr, i32, i32, ptr, ptr, ptr, ...) @arkProcessError(ptr noundef null, i32 noundef -21, i32 noundef 2964, ptr noundef nonnull @__func__.arkPredict_MaximumOrder, ptr noundef nonnull @.str, ptr noundef nonnull @.str.135)
  br label %13

6:                                                ; preds = %3
  %7 = getelementptr inbounds nuw i8, ptr %0, i64 664
  %8 = load ptr, ptr %7, align 8, !tbaa !33
  %9 = icmp eq ptr %8, null
  br i1 %9, label %10, label %11

10:                                               ; preds = %6
  tail call void (ptr, i32, i32, ptr, ptr, ptr, ...) @arkProcessError(ptr noundef nonnull %0, i32 noundef -21, i32 noundef 2970, ptr noundef nonnull @__func__.arkPredict_MaximumOrder, ptr noundef nonnull @.str, ptr noundef nonnull @.str.136)
  br label %13

11:                                               ; preds = %6
  %12 = tail call i32 @arkInterpEvaluate(ptr noundef nonnull %0, ptr noundef nonnull %8, double noundef %1, i32 noundef 0, i32 noundef 5, ptr noundef %2) #16
  br label %13

13:                                               ; preds = %11, %10, %5
  %.0 = phi i32 [ -21, %5 ], [ -21, %10 ], [ %12, %11 ]
  ret i32 %.0
}